target datalayout = "e-m:e-p270:32:32-p271:32:32-p272:64:64-i64:64-i128:128-f80:128-n8:16:32:64-S128"
target triple = "x86_64-pc-linux-gnu"

@.str.46 = private unnamed_addr constant [3 x i8] c"  \00", align 1
@.str.47 = private unnamed_addr constant [4 x i8] c"\0A]\0A\00", align 1
@.str.48 = private unnamed_addr constant [17 x i8] c"scalars16 = [\0A  \00", align 1
@.str.49 = private unnamed_addr constant [17 x i8] c"scalars32 = [\0A  \00", align 1

; Function Attrs: mustprogress uwtable
define dso_local void @_Z24writeDecompositionTablesPKcPKtmPKjm(ptr noundef %0, ptr noundef %1, i64 noundef %2, ptr noundef %3, i64 noundef %4) #5 {
  %6 = alloca ptr, align 8
  %7 = alloca ptr, align 8
  %8 = alloca i64, align 8
  %9 = alloca ptr, align 8
  %10 = alloca i64, align 8
  %11 = alloca ptr, align 8
  store ptr %0, ptr %6, align 8, !tbaa !18
  store ptr %1, ptr %7, align 8, !tbaa !89
  store i64 %2, ptr %8, align 8, !tbaa !19
  store ptr %3, ptr %9, align 8, !tbaa !21
  store i64 %4, ptr %10, align 8, !tbaa !19
  call void @llvm.lifetime.start.p0(i64 8, ptr %11) #3
  %12 = load ptr, ptr %6, align 8, !tbaa !18
  %13 = call noundef ptr @_Z17prepareOutputFilePKc(ptr noundef %12)
  store ptr %13, ptr %11, align 8, !tbaa !36
  %14 = load ptr, ptr %11, align 8, !tbaa !36
  %15 = load ptr, ptr %7, align 8, !tbaa !89
  %16 = load i64, ptr %8, align 8, !tbaa !19
  %17 = trunc i64 %16 to i32
  call void @usrc_writeArray(ptr noundef %14, ptr noundef @.str.48, ptr noundef %15, i32 noundef 16, i32 noundef %17, ptr noundef @.str.46, ptr noundef @.str.47)
  %18 = load ptr, ptr %11, align 8, !tbaa !36
  %19 = load ptr, ptr %9, align 8, !tbaa !21
  %20 = load i64, ptr %10, align 8, !tbaa !19
  %21 = trunc i64 %20 to i32
  call void @usrc_writeArray(ptr noundef %18, ptr noundef @.str.49, ptr noundef %19, i32 noundef 32, i32 noundef %21, ptr noundef @.str.46, ptr noundef @.str.47)
  %22 = load ptr, ptr %11, align 8, !tbaa !36
  %23 = call i32 @fclose(ptr noundef %22)
  call void @llvm.lifetime.end.p0(i64 8, ptr %11) #3
  ret void
}