; Function Attrs: mustprogress uwtable
define dso_local void @_Z24writeDecompositionTablesPKcPKtmPKjm(ptr noundef %0, ptr noundef %1, i64 noundef %2, ptr noundef %3, i64 noundef %4) local_unnamed_addr #4 {
  %6 = tail call noundef ptr @_Z17prepareOutputFilePKc(ptr noundef %0)
  %7 = trunc i64 %2 to i32
  tail call void @usrc_writeArray(ptr noundef nonnull %6, ptr noundef nonnull @.str.48, ptr noundef %1, i32 noundef 16, i32 noundef %7, ptr noundef nonnull @.str.46, ptr noundef nonnull @.str.47)
  %8 = trunc i64 %4 to i32
  tail call void @usrc_writeArray(ptr noundef nonnull %6, ptr noundef nonnull @.str.49, ptr noundef %3, i32 noundef 32, i32 noundef %8, ptr noundef nonnull @.str.46, ptr noundef nonnull @.str.47)
  %9 = tail call i32 @fclose(ptr noundef nonnull %6)
  ret void
}